(lp0
(S'the'
p1
I101
tp2
a(S'of'
p3
I99
tp4
a(S'to'
p5
I59
tp6
a(S'and'
p7
I42
tp8
a(S'a'
p9
I37
tp10
a(S'be'
p11
I33
tp12
a(S'will'
p13
I27
tp14
a(S'that'
p15
I24
tp16
a(S'is'
p17
I23
tp18
a(S'in'
p19
I20
tp20
a(S'freedom'
p21
I20
tp22
a(S'as'
p23
I20
tp24
a(S'we'
p25
I18
tp26
a(S'our'
p27
I17
tp28
a(S'have'
p29
I17
tp30
a(S'from'
p31
I16
tp32
a(S'this'
p33
I15
tp34
a(S'I'
p35
I15
tp36
a(S'Negro'
p37
I13
tp38
a(S'not'
p39
I13
tp40
a(S'with'
p41
I13
tp42
a(S'day'
p43
I12
tp44
a(S'ring'
p45
I12
tp46
a(S'We'
p47
I12
tp48
a(S'And'
p49
I12
tp50
a(S'dream'
p51
I11
tp52
a(S'every'
p53
I10
tp54
a(S'nation'
p55
I10
tp56
a(S'one'
p57
I10
tp58
a(S'come'
p59
I10
tp60
a(S'today'
p61
I9
tp62
a(S'back'
p63
I9
tp64
a(S'Let'
p65
I9
tp66
a(S'go'
p67
I8
tp68
a(S'must'
p69
I8
tp70
a(S'satisfied'
p71
I8
tp72
a(S'their'
p73
I8
tp74
a(S'able'
p75
I8
tp76
a(S'justice'
p77
I8
tp78
a(S'are'
p79
I8
tp80
a(S'for'
p81
I8
tp82
a(S'by'
p83
I8
tp84
a(S'all'
p85
I7
tp86
a(S'you'
p87
I7
tp88
a(S'together'
p89
I7
tp90
a(S'men'
p91
I6
tp92
a(S'white'
p93
I6
tp94
a(S'cannot'
p95
I6
tp96
a(S'long'
p97
I6
tp98
a(S'children'
p99
I5
tp100
a(S'America'
p101
I5
tp102
a(S'great'
p103
I5
tp104
a(S'faith'
p105
I5
tp106
a(S'Now'
p107
I5
tp108
a(S'years'
p109
I5
tp110
a(S'This'
p111
I5
tp112
a(S'which'
p113
I5
tp114
a(S'shall'
p115
I5
tp116
a(S'has'
p117
I5
tp118
a(S'on'
p119
I5
tp120
a(S'there'
p121
I5
tp122
a(S'check'
p123
I5
tp124
a(S'when'
p125
I5
tp126
a(S'time'
p127
I5
tp128
a(S'until'
p129
I4
tp130
a(S'American'
p131
I4
tp132
a(S'can'
p133
I4
tp134
a(S'my'
p135
I4
tp136
a(S'so'
p137
I4
tp138
a(S'Mississippi'
p139
I4
tp140
a(S'still'
p141
I4
tp142
a(S'hundred'
p143
I4
tp144
a(S'who'
p145
I4
tp146
a(S'later'
p147
I4
tp148
a(S'black'
p149
I4
tp150
a(S'hope'
p151
I4
tp152
a(S'let'
p153
I4
tp154
a(S'But'
p155
I4
tp156
a(S'It'
p157
I4
tp158
a(S'into'
p159
I4
tp160
a(S'down'
p161
I4
tp162
a(S'up'
p163
I4
tp164
a(S'us'
p165
I4
tp166
a(S'an'
p167
I4
tp168
a(S'at'
p169
I4
tp170
a(S''
p171
I3
tp172
a(S'sweltering'
p173
I3
tp174
a(S'rise'
p175
I3
tp176
a(S'here'
p177
I3
tp178
a(S'join'
p179
I3
tp180
a(S'Alabama'
p181
I3
tp182
a(S'One'
p183
I3
tp184
a(S'its'
p185
I3
tp186
a(S'they'
p187
I3
tp188
a(S'out'
p189
I3
tp190
a(S'little'
p191
I3
tp192
a(S'free'
p193
I3
tp194
a(S"God's"
p195
I3
tp196
a(S'note'
p197
I3
tp198
a(S'With'
p199
I3
tp200
a(S'his'
p201
I3
tp202
a(S'words'
p203
I3
tp204
a(S'where'
p205
I3
tp206
a(S'state'
p207
I3
tp208
a(S'injustice'
p209
I3
tp210
a(S'never'
p211
I3
tp212
a(S'last'
p213
I3
tp214
a(S'sing'
p215
I3
tp216
a(S'Georgia'
p217
I3
tp218
a(S'make'
p219
I3
tp220
a(S"we've"
p221
I3
tp222
a(S'people'
p223
I3
tp224
a(S'New'
p225
I3
tp226
a(S'stand'
p227
I3
tp228
a(S'valley'
p229
I3
tp230
a(S'made'
p231
I3
tp232
a(S'brotherhood'
p233
I3
tp234
a(S'land'
p235
I3
tp236
a(S'those'
p237
I2
tp238
a(S'sons'
p239
I2
tp240
a(S'force'
p241
I2
tp242
a(S'even'
p243
I2
tp244
a(S'new'
p245
I2
tp246
a(S'promissory'
p247
I2
tp248
a(S'When'
p249
I2
tp250
a(S'would'
p251
I2
tp252
a(S'live'
p253
I2
tp254
a(S'rights'
p255
I2
tp256
a(S'work'
p257
I2
tp258
a(S'history'
p259
I2
tp260
a(S'end'
p261
I2
tp262
a(S'refuse'
p263
I2
tp264
a(S'allow'
p265
I2
tp266
a(S'some'
p267
I2
tp268
a(S'police'
p269
I2
tp270
a(S'mountainside'
p271
I2
tp272
a(S'thee'
p273
I2
tp274
a(S'hands'
p275
I2
tp276
a(S'From'
p277
I2
tp278
a(S'content'
p279
I2
tp280
a(S'hill'
p281
I2
tp282
a(S'struggle'
p283
I2
tp284
a(S'Mountain'
p285
I2
tp286
a(S'vote'
p287
I2
tp288
a(S'girls'
p289
I2
tp290
a(S'believe'
p291
I2
tp292
a(S'say'
p293
I2
tp294
a(S'jail'
p295
I2
tp296
a(S'The'
p297
I2
tp298
a(S'slaves'
p299
I2
tp300
a(S'urgency'
p301
I2
tp302
a(S'true'
p303
I2
tp304
a(S'Free'
p305
I2
tp306
a(S'York'
p307
I2
tp308
a(S'destiny'
p309
I2
tp310
a(S'knowing'
p311
I2
tp312
a(S'cities'
p313
I2
tp314
a(S'color'
p315
I2
tp316
a(S'walk'
p317
I2
tp318
a(S'former'
p319
I2
tp320
a(S'cash'
p321
I2
tp322
a(S'it'
p323
I2
tp324
a(S'if'
p325
I2
tp326
a(S'mountain'
p327
I2
tp328
a(S'off'
p329
I2
tp330
a(S'In'
p331
I2
tp332
a(S'realize'
p333
I2
tp334
a(S'suffering'
p335
I2
tp336
a(S'quest'
p337
I2
tp338
a(S'like'
p339
I2
tp340
a(S'dignity'
p341
I2
tp342
a(S'brutality'
p343
I2
tp344
a(S'mighty'
p345
I2
tp346
a(S'racial'
p347
I2
tp348
a(S'creative'
p349
I2
tp350
a(S'despair'
p351
I2
tp352
a(S'insufficient'
p353
I2
tp354
a(S'been'
p355
I2
tp356
a(S'was'
p357
I2
tp358
a(S'funds'
p359
I2
tp360
a(S'but'
p361
I2
tp362
a(S'boys'
p363
I2
tp364
a(S'heat'
p365
I2
tp366
a(S'segregation'
p367
I2
tp368
a(S'places'
p369
I2
tp370
a(S'am'
p371
I2
tp372
a(S'physical'
p373
I2
tp374
a(S'no'
p375
I2
tp376
a(S'brothers'
p377
I2
tp378
a(S'meaning'
p379
I2
tp380
a(S'South'
p381
I2
tp382
a(S'came'
p383
I2
tp384
a(S'leads'
p385
I1
tp386
a(S'protest'
p387
I1
tp388
a(S'skin'
p389
I1
tp390
a(S'Louisiana'
p391
I1
tp392
a(S'whose'
p393
I1
tp394
a(S'honoring'
p395
I1
tp396
a(S'concerned'
p397
I1
tp398
a(S'sunlit'
p399
I1
tp400
a(S'redemptive'
p401
I1
tp402
a(S'fatal'
p403
I1
tp404
a(S'veterans'
p405
I1
tp406
a(S'exalted'
p407
I1
tp408
a(S'languished'
p409
I1
tp410
a(S'fall'
p411
I1
tp412
a(S'drinking'
p413
I1
tp414
a(S'condition'
p415
I1
tp416
a(S'highways'
p417
I1
tp418
a(S'these'
p419
I1
tp420
a(S'Go'
p421
I1
tp422
a(S'spiritual'
p423
I1
tp424
a(S'smaller'
p425
I1
tp426
a(S'pledge'
p427
I1
tp428
a(S'winds'
p429
I1
tp430
a(S'Only'
p431
I1
tp432
a(S'pass'
p433
I1
tp434
a(S'what'
p435
I1
tp436
a(S'quicksands'
p437
I1
tp438
a(S'deeply'
p439
I1
tp440
a(S'liberty'
p441
I1
tp442
a(S'conduct'
p443
I1
tp444
a(S'nullification'
p445
I1
tp446
a(S'God'
p447
I1
tp448
a(S'satisfy'
p449
I1
tp450
a(S"nation's"
p451
I1
tp452
a(S'beacon'
p453
I1
tp454
a(S'poverty'
p455
I1
tp456
a(S'pursuit'
p457
I1
tp458
a(S'crippled'
p459
I1
tp460
a(S'alone'
p461
I1
tp462
a(S'path'
p463
I1
tp464
a(S'My'
p465
I1
tp466
a(S'momentous'
p467
I1
tp468
a(S'engage'
p469
I1
tp470
a(S'Jews'
p471
I1
tp472
a(S'flames'
p473
I1
tp474
a(S'larger'
p475
I1
tp476
a(S'guilty'
p477
I1
tp478
a(S'self-hood'
p479
I1
tp480
a(S'narrow'
p481
I1
tp482
a(S'hilltops'
p483
I1
tp484
a(S'daybreak'
p485
I1
tp486
a(S'Constitution'
p487
I1
tp488
a(S'mobility'
p489
I1
tp490
a(S'marked'
p491
I1
tp492
a(S'marvelous'
p493
I1
tp494
a(S'lodging'
p495
I1
tp496
a(S'hotels'
p497
I1
tp498
a(S'give'
p499
I1
tp500
a(S'symphony'
p501
I1
tp502
a(S'Declaration'
p503
I1
tp504
a(S'judged'
p505
I1
tp506
a(S'Land'
p507
I1
tp508
a(S'heir'
p509
I1
tp510
a(S'jangling'
p511
I1
tp512
a(S'warm'
p513
I1
tp514
a(S'foundations'
p515
I1
tp516
a(S'midst'
p517
I1
tp518
a(S'hold'
p519
I1
tp520
a(S'autumn'
p521
I1
tp522
a(S'interposition'
p523
I1
tp524
a(S'soul'
p525
I1
tp526
a(S'believes'
p527
I1
tp528
a(S'obvious'
p529
I1
tp530
a(S'beautiful'
p531
I1
tp532
a(S'violence'
p533
I1
tp534
a(S'stream'
p535
I1
tp536
a(S'joyous'
p537
I1
tp538
a(S'process'
p539
I1
tp540
a(S'dripping'
p541
I1
tp542
a(S'high'
p543
I1
tp544
a(S'Almighty'
p545
I1
tp546
a(S'something'
p547
I1
tp548
a(S'degenerate'
p549
I1
tp550
a(S'sense'
p551
I1
tp552
a(S'Lord'
p553
I1
tp554
a(S'bankrupt'
p555
I1
tp556
a(S'democracy'
p557
I1
tp558
a(S'sit'
p559
I1
tp560
a(S'travel'
p561
I1
tp562
a(S'sacred'
p563
I1
tp564
a(S'motels'
p565
I1
tp566
a(S'manacles'
p567
I1
tp568
a(S'rude'
p569
I1
tp570
a(S'battered'
p571
I1
tp572
a(S'waters'
p573
I1
tp574
a(S'spot'
p575
I1
tp576
a(S'vicious'
p577
I1
tp578
a(S'tied'
p579
I1
tp580
a(S'plane'
p581
I1
tp582
a(S'fatigue'
p583
I1
tp584
a(S'revealed'
p585
I1
tp586
a(S'four'
p587
I1
tp588
a(S'light'
p589
I1
tp590
a(S'revolt'
p591
I1
tp592
a(S'Tennessee'
p593
I1
tp594
a(S'insofar'
p595
I1
tp596
a(S'granted'
p597
I1
tp598
a(S'tranquilizing'
p599
I1
tp600
a(S'shake'
p601
I1
tp602
a(S"Pilgrim's"
p603
I1
tp604
a(S'Catholics'
p605
I1
tp606
a(S'pray'
p607
I1
tp608
a(S'No'
p609
I1
tp610
a(S'deeds'
p611
I1
tp612
a(S'vast'
p613
I1
tp614
a(S'areas'
p615
I1
tp616
a(S'lonely'
p617
I1
tp618
a(S'died'
p619
I1
tp620
a(S'material'
p621
I1
tp622
a(S'shameful'
p623
I1
tp624
a(S'now'
p625
I1
tp626
a(S'bank'
p627
I1
tp628
a(S'equality'
p629
I1
tp630
a(S'corners'
p631
I1
tp632
a(S'truths'
p633
I1
tp634
a(S'rock'
p635
I1
tp636
a(S'discords'
p637
I1
tp638
a(S'heavy'
p639
I1
tp640
a(S'signing'
p641
I1
tp642
a(S'Proclamation'
p643
I1
tp644
a(S'Liberty'
p645
I1
tp646
a(S'society'
p647
I1
tp648
a(S'whirlwinds'
p649
I1
tp650
a(S'emerges'
p651
I1
tp652
a(S'decree'
p653
I1
tp654
a(S'thirst'
p655
I1
tp656
a(S'your'
p657
I1
tp658
a(S'red'
p659
I1
tp660
a(S'Stone'
p661
I1
tp662
a(S'Rights'
p663
I1
tp664
a(S'withering'
p665
I1
tp666
a(S'oasis'
p667
I1
tp668
a(S'obligation'
p669
I1
tp670
a(S'beginning'
p671
I1
tp672
a(S'owners'
p673
I1
tp674
a(S'created'
p675
I1
tp676
a(S'turn'
p677
I1
tp678
a(S'Continue'
p679
I1
tp680
a(S'place'
p681
I1
tp682
a(S'staggered'
p683
I1
tp684
a(S'rooted'
p685
I1
tp686
a(S'There'
p687
I1
tp688
a(S'symbolic'
p689
I1
tp690
a(S'sisters'
p691
I1
tp692
a(S'tomorrow'
p693
I1
tp694
a(S'millions'
p695
I1
tp696
a(S'city'
p697
I1
tp698
a(S'given'
p699
I1
tp700
a(S'sadly'
p701
I1
tp702
a(S'needed'
p703
I1
tp704
a(S'Alleghenies'
p705
I1
tp706
a(S'cooling'
p707
I1
tp708
a(S'heights'
p709
I1
tp710
a(S'hallowed'
p711
I1
tp712
a(S'returns'
p713
I1
tp714
a(S'Emancipation'
p715
I1
tp716
a(S'militancy'
p717
I1
tp718
a(S'defaulted'
p719
I1
tp720
a(S'prodigious'
p721
I1
tp722
a(S'character'
p723
I1
tp724
a(S'Colorado'
p725
I1
tp726
a(S'riches'
p727
I1
tp728
a(S'bitterness'
p729
I1
tp730
a(S'were'
p731
I1
tp732
a(S'palace'
p733
I1
tp734
a(S'gradualism'
p735
I1
tp736
a(S'Rockies'
p737
I1
tp738
a(S'horrors'
p739
I1
tp740
a(S'Instead'
p741
I1
tp742
a(S'seek'
p743
I1
tp744
a(S'heightening'
p745
I1
tp746
a(S'prosperity'
p747
I1
tp748
a(S'also'
p749
I1
tp750
a(S'take'
p751
I1
tp752
a(S'tranquility'
p753
I1
tp754
a(S"Negro's"
p755
I1
tp756
a(S'architects'
p757
I1
tp758
a(S'nothing'
p759
I1
tp760
a(S'forever'
p761
I1
tp762
a(S'Some'
p763
I1
tp764
a(S'face'
p765
I1
tp766
a(S'left'
p767
I1
tp768
a(S'gain'
p769
I1
tp770
a(S'discontent'
p771
I1
tp772
a(S'tribulations'
p773
I1
tp774
a(S'hamlet'
p775
I1
tp776
a(S'bright'
p777
I1
tp778
a(S'threshold'
p779
I1
tp780
a(S'rough'
p781
I1
tp782
a(S'Independence'
p783
I1
tp784
a(S'northern'
p785
I1
tp786
a(S'dramatize'
p787
I1
tp788
a(S'storms'
p789
I1
tp790
a(S'only'
p791
I1
tp792
a(S'difficulties'
p793
I1
tp794
a(S'righteousness'
p795
I1
tp796
a(S'capital'
p797
I1
tp798
a(S'legitimate'
p799
I1
tp800
a(S'self-evident'
p801
I1
tp802
a(S'ghetto'
p803
I1
tp804
a(S'seared'
p805
I1
tp806
a(S'glory'
p807
I1
tp808
a(S'Whites'
p809
I1
tp810
a(S'bad'
p811
I1
tp812
a(S'steam'
p813
I1
tp814
a(S'wrote'
p815
I1
tp816
a(S'For'
p817
I1
tp818
a(S'signs'
p819
I1
tp820
a(S'see'
p821
I1
tp822
a(S'snow-capped'
p823
I1
tp824
a(S'molehill'
p825
I1
tp826
a(S'crooked'
p827
I1
tp828
a(S'unalienable'
p829
I1
tp830
a(S'score'
p831
I1
tp832
a(S'neither'
p833
I1
tp834
a(S'discipline'
p835
I1
tp836
a(S'inextricably'
p837
I1
tp838
a(S'signed'
p839
I1
tp840
a(S'always'
p841
I1
tp842
a(S'many'
p843
I1
tp844
a(S'equal'
p845
I1
tp846
a(S'drug'
p847
I1
tp848
a(S'finds'
p849
I1
tp850
a(S'Happiness'
p851
I1
tp852
a(S'sixty-three'
p853
I1
tp854
a(S'guaranteed'
p855
I1
tp856
a(S'community'
p857
I1
tp858
a(S'majestic'
p859
I1
tp860
a(S'table'
p861
I1
tp862
a(S'Lookout'
p863
I1
tp864
a(S'discrimination'
p865
I1
tp866
a(S'overlook'
p867
I1
tp868
a(S'California'
p869
I1
tp870
a(S'basic'
p871
I1
tp872
a(S'meeting'
p873
I1
tp874
a(S'ghettos'
p875
I1
tp876
a(S'life'
p877
I1
tp878
a(S'robbed'
p879
I1
tp880
a(S'evidenced'
p881
I1
tp882
a(S'lift'
p883
I1
tp884
a(S'lives'
p885
I1
tp886
a(S'demand'
p887
I1
tp888
a(S'captivity'
p889
I1
tp890
a(S'ahead'
p891
I1
tp892
a(S"negro's"
p893
I1
tp894
a(S'solid'
p895
I1
tp896
a(S'plain'
p897
I1
tp898
a(S'straight'
p899
I1
tp900
a(S'governor'
p901
I1
tp902
a(S'country'
p903
I1
tp904
a(S'situation'
p905
I1
tp906
a(S'vaults'
p907
I1
tp908
a(S'changed'
p909
I1
tp910
a(S'unearned'
p911
I1
tp912
a(S'devotees'
p913
I1
tp914
a(S'awakening'
p915
I1
tp916
a(S'exile'
p917
I1
tp918
a(S'You'
p919
I1
tp920
a(S'demonstration'
p921
I1
tp922
a(S'slave'
p923
I1
tp924
a(S'island'
p925
I1
tp926
a(S'upon'
p927
I1
tp928
a(S'moment'
p929
I1
tp930
a(S'fierce'
p931
I1
tp932
a(S'opportunity'
p933
I1
tp934
a(S'well'
p935
I1
tp936
a(S'ocean'
p937
I1
tp938
a(S'pride'
p939
I1
tp940
a(S'greatest'
p941
I1
tp942
a(S'stating'
p943
I1
tp944
a(S'bodies'
p945
I1
tp946
a(S'usual'
p947
I1
tp948
a(S'summer'
p949
I1
tp950
a(S'desolate'
p951
I1
tp952
a(S'Thank'
p953
I1
tp954
a(S'flesh'
p955
I1
tp956
a(S'rest'
p957
I1
tp958
a(S'victim'
p959
I1
tp960
a(S'yes'
p961
I1
tp962
a(S'tis'
p963
I1
tp964
a(S'speed'
p965
I1
tp966
a(S'blow'
p967
I1
tp968
a(S'hills'
p969
I1
tp970
a(S'cup'
p971
I1
tp972
a(S'had'
p973
I1
tp974
a(S'transformed'
p975
I1
tp976
a(S'nor'
p977
I1
tp978
a(S'sweet'
p979
I1
tp980
a(S'engulfed'
p981
I1
tp982
a(S'Five'
p983
I1
tp984
a(S'luxury'
p985
I1
tp986
a(S'real'
p987
I1
tp988
a(S'march'
p989
I1
tp990
a(S'dark'
p991
I1
tp992
a(S'shadow'
p993
I1
tp994
a(S'racists'
p995
I1
tp996
a(S'wrongful'
p997
I1
tp998
a(S'remind'
p999
I1
tp1000
a(S'distrust'
p1001
I1
tp1002
a(S'continue'
p1003
I1
tp1004
a(S'night'
p1005
I1
tp1006
a(S'become'
p1007
I1
tp1008
a(S'security'
p1009
I1
tp1010
a(S'Again'
p1011
I1
tp1012
a(S'right'
p1013
I1
tp1014
a(S'old'
p1015
I1
tp1016
a(S'creed'
p1017
I1
tp1018
a(S'village'
p1019
I1
tp1020
a(S'magnificent'
p1021
I1
tp1022
a(S'lips'
p1023
I1
tp1024
a(S'happens'
p1025
I1
tp1026
a(S'Life'
p1027
I1
tp1028
a(S'though'
p1029
I1
tp1030
a(S'asking'
p1031
I1
tp1032
a(S'chains'
p1033
I1
tp1034
a(S'somehow'
p1035
I1
tp1036
a(S'curvaceous'
p1037
I1
tp1038
a(S'unmindful'
p1039
I1
tp1040
a(S'business'
p1041
I1
tp1042
a(S'stone'
p1043
I1
tp1044
a(S'citizens'
p1045
I1
tp1046
a(S'Protestants'
p1047
I1
tp1048
a(S'hatred'
p1049
I1
tp1050
a(S'or'
p1051
I1
tp1052
a(S'own'
p1053
I1
tp1054
a(S'presence'
p1055
I1
tp1056
a(S'civil'
p1057
I1
tp1058
a(S'bound'
p1059
I1
tp1060
a(S'promise'
p1061
I1
tp1062
a(S'rolls'
p1063
I1
tp1064
a(S'hew'
p1065
I1
tp1066
a(S'Gentiles'
p1067
I1
tp1068
a(S'her'
p1069
I1
tp1070
a(S'transform'
p1071
I1
tp1072
a(S'low'
p1073
I1
tp1074
a(S'slopes'
p1075
I1
tp1076
a(S'fathers'
p1077
I1
tp1078
a(S'happy'
p1079
I1
tp1080
a(S'mountains'
p1081
I1
tp1082
a(S'himself'
p1083
I1
tp1084
a(S'slums'
p1085
I1
tp1086
a(S'he'
p1087
I1
tp1088
a(S'cells'
p1089
I1
tp1090
a(S'promises'
p1091
I1
tp1092
a(S'citizenship'
p1093
I1
tp1094
a(S'invigorating'
p1095
I1
tp1096
a(S'stripped'
p1097
I1
tp1098
a(S'Hampshire'
p1099
I1
tp1100
a(S'again'
p1101
I1
tp1102
a(S'trials'
p1103
I1
tp1104
a(S'reality'
p1105
I1
tp1106
a(S'Pennsylvania'
p1107
I1
tp1108
a(S'republic'
p1109
I1
tp1110
a(S'Carolina'
p1111
I1
tp1112
a(S'Nineteen'
p1113
I1
tp1114
a(S'gaining'
p1115
I1
tp1116
a(S'oppression'
p1117
I1
tp1118
a(S'wallow'
p1119
I1
tp1120
a(S'persecution'
p1121
I1
tp1122
a(S'friends'
p1123
I1
tp1124
a(S'rightful'
p1125
I1
tp1126
a(S'ago'
p1127
I1
tp1128
a(S'lead'
p1129
I1
tp1130
a(S'fresh'
p1131
I1
tp1132
a(S'having'
p1133
I1
tp1134
a(S'unspeakable'
p1135
I1
tp1136
a.